; Function Attrs: mustprogress nounwind uwtable
define dso_local noundef i64 @_ZNK4node6crypto13KeyObjectData19GetSymmetricKeySizeEv(ptr nocapture noundef nonnull readonly align 8 dereferenceable(72) %this) local_unnamed_addr #3 align 2 {
entry:
  %key_type_ = getelementptr inbounds i8, ptr %this, i64 8
  %0 = load i32, ptr %key_type_, align 8
  %cmp.not = icmp eq i32 %0, 0
  br i1 %cmp.not, label %do.end5, label %do.body4

do.body4:                                         ; preds = %entry
  tail call void @_ZN4node6AssertERKNS_13AssertionInfoE(ptr noundef nonnull align 8 dereferenceable(24) @_ZZNK4node6crypto13KeyObjectData19GetSymmetricKeySizeEvE4args) #24
  tail call void @abort() #25
  unreachable

do.end5:                                          ; preds = %entry
  %size_.i = getelementptr inbounds i8, ptr %this, i64 32
  %1 = load i64, ptr %size_.i, align 8
  ret i64 %1
}